target datalayout = "e-m:e-p270:32:32-p271:32:32-p272:64:64-i64:64-i128:128-f80:128-n8:16:32:64-S128"
target triple = "x86_64-pc-linux-gnu"

%struct.wg_qqword = type { [32 x i8] }
%struct.wg_handshake_state_t = type { ptr, ptr, [12 x i8], i8, ptr, ptr, %struct.wg_qqword, %struct.wg_qqword, ptr, ptr }

; Function Attrs: null_pointer_is_valid sspstrong uwtable
define internal zeroext i1 @wg_handshake_state_destroy_cb(ptr noundef %0, i32 noundef %1, ptr noundef %2) #0 {
  %4 = alloca ptr, align 8
  %5 = alloca i32, align 4
  %6 = alloca ptr, align 8
  %7 = alloca ptr, align 8
  store ptr %0, ptr %4, align 8
  store i32 %1, ptr %5, align 4
  store ptr %2, ptr %6, align 8
  call void @llvm.lifetime.start.p0(i64 8, ptr %7) #19
  %8 = load ptr, ptr %6, align 8
  store ptr %8, ptr %7, align 8
  %9 = load ptr, ptr %7, align 8
  %10 = getelementptr inbounds nuw %struct.wg_handshake_state_t, ptr %9, i32 0, i32 8
  %11 = load ptr, ptr %10, align 8
  %12 = icmp ne ptr %11, null
  br i1 %12, label %13, label %19

13:                                               ; preds = %3
  %14 = load ptr, ptr %7, align 8
  %15 = getelementptr inbounds nuw %struct.wg_handshake_state_t, ptr %14, i32 0, i32 8
  %16 = load ptr, ptr %15, align 8
  call void @gcry_cipher_close(ptr noundef %16)
  %17 = load ptr, ptr %7, align 8
  %18 = getelementptr inbounds nuw %struct.wg_handshake_state_t, ptr %17, i32 0, i32 8
  store ptr null, ptr %18, align 8
  br label %19

19:                                               ; preds = %13, %3
  %20 = load ptr, ptr %7, align 8
  %21 = getelementptr inbounds nuw %struct.wg_handshake_state_t, ptr %20, i32 0, i32 9
  %22 = load ptr, ptr %21, align 8
  %23 = icmp ne ptr %22, null
  br i1 %23, label %24, label %30

24:                                               ; preds = %19
  %25 = load ptr, ptr %7, align 8
  %26 = getelementptr inbounds nuw %struct.wg_handshake_state_t, ptr %25, i32 0, i32 9
  %27 = load ptr, ptr %26, align 8
  call void @gcry_cipher_close(ptr noundef %27)
  %28 = load ptr, ptr %7, align 8
  %29 = getelementptr inbounds nuw %struct.wg_handshake_state_t, ptr %28, i32 0, i32 9
  store ptr null, ptr %29, align 8
  br label %30

30:                                               ; preds = %24, %19
  call void @llvm.lifetime.end.p0(i64 8, ptr %7) #19
  ret i1 false
}