; Function Attrs: null_pointer_is_valid sspstrong uwtable
define internal noundef zeroext i1 @wg_handshake_state_destroy_cb(ptr readnone captures(none) %0, i32 %1, ptr noundef captures(none) %2) #0 {
  %4 = getelementptr inbounds nuw i8, ptr %2, i64 112
  %5 = load ptr, ptr %4, align 8
  %.not = icmp eq ptr %5, null
  br i1 %.not, label %7, label %6

6:                                                ; preds = %3
  tail call void @gcry_cipher_close(ptr noundef nonnull %5)
  store ptr null, ptr %4, align 8
  br label %7

7:                                                ; preds = %6, %3
  %8 = getelementptr inbounds nuw i8, ptr %2, i64 120
  %9 = load ptr, ptr %8, align 8
  %.not8 = icmp eq ptr %9, null
  br i1 %.not8, label %11, label %10

10:                                               ; preds = %7
  tail call void @gcry_cipher_close(ptr noundef nonnull %9)
  store ptr null, ptr %8, align 8
  br label %11

11:                                               ; preds = %10, %7
  ret i1 false
}